; Function Attrs: mustprogress nounwind uwtable
define internal void @_ZN9grpc_core12_GLOBAL__N_112StateWatcherD2Ev(ptr noundef nonnull align 8 dereferenceable(153) %this) unnamed_addr #10 align 2 personality ptr @__gxx_personality_v0 {
entry:
  store ptr getelementptr inbounds ({ [5 x ptr] }, ptr @_ZTVN9grpc_core12_GLOBAL__N_112StateWatcherE, i64 0, i32 0, i64 2), ptr %this, align 8
  %mu_ = getelementptr inbounds i8, ptr %this, i64 120
  tail call void @_ZN4absl12lts_202308025MutexD1Ev(ptr noundef nonnull align 8 dereferenceable(8) %mu_) #18
  %channel_ = getelementptr inbounds i8, ptr %this, i64 16
  %0 = load ptr, ptr %channel_, align 8
  %cmp.not.i = icmp eq ptr %0, null
  br i1 %cmp.not.i, label %_ZN9grpc_core13RefCountedPtrINS_7ChannelEED2Ev.exit, label %if.then.i

if.then.i:                                        ; preds = %entry
  %refs_.i.i = getelementptr inbounds i8, ptr %0, i64 8
  %1 = atomicrmw sub ptr %refs_.i.i, i64 1 acq_rel, align 8
  %cmp.i.i.i = icmp eq i64 %1, 1
  br i1 %cmp.i.i.i, label %if.then.i.i, label %_ZN9grpc_core13RefCountedPtrINS_7ChannelEED2Ev.exit

if.then.i.i:                                      ; preds = %if.then.i
  %vtable.i.i.i = load ptr, ptr %0, align 8
  %vfn.i.i.i = getelementptr inbounds i8, ptr %vtable.i.i.i, i64 8
  %2 = load ptr, ptr %vfn.i.i.i, align 8
  tail call void %2(ptr noundef nonnull align 8 dereferenceable(176) %0) #18
  br label %_ZN9grpc_core13RefCountedPtrINS_7ChannelEED2Ev.exit

_ZN9grpc_core13RefCountedPtrINS_7ChannelEED2Ev.exit: ; preds = %entry, %if.then.i, %if.then.i.i
  ret void
}